target datalayout = "e-m:e-p270:32:32-p271:32:32-p272:64:64-i64:64-i128:128-f80:128-n8:16:32:64-S128"
target triple = "x86_64-pc-linux-gnu"

%struct.ident_t = type { i32, i32, i32, i32, ptr }
%"class.std::__cxx11::basic_string" = type { %"struct.std::__cxx11::basic_string<char>::_Alloc_hider", i64, %union.anon }
%"struct.std::__cxx11::basic_string<char>::_Alloc_hider" = type { ptr }
%union.anon = type { i64, [8 x i8] }
%"struct.faiss::Index.base" = type <{ ptr, i32, [4 x i8], i64, i8, i8, [2 x i8], i32, float }>
%"struct.faiss::Index" = type <{ ptr, i32, [4 x i8], i64, i8, i8, [2 x i8], i32, float, [4 x i8] }>
%"class.std::vector.3" = type { %"struct.std::_Vector_base.4" }
%"struct.std::_Vector_base.4" = type { %"struct.std::_Vector_base<long, std::allocator<long>>::_Vector_impl" }
%"struct.std::_Vector_base<long, std::allocator<long>>::_Vector_impl" = type { %"struct.std::_Vector_base<long, std::allocator<long>>::_Vector_impl_data" }
%"struct.std::_Vector_base<long, std::allocator<long>>::_Vector_impl_data" = type { ptr, ptr, ptr }
%"struct.faiss::Level1Quantizer" = type { ptr, i64, i8, i8, %"struct.faiss::ClusteringParameters", ptr }
%"struct.faiss::ClusteringParameters" = type { i32, i32, i8, i8, i8, i8, i8, i32, i32, i32, i64 }
%"class.std::vector.15" = type { %"struct.std::_Vector_base.16" }
%"struct.std::_Vector_base.16" = type { %"struct.std::_Vector_base<float, std::allocator<float>>::_Vector_impl" }
%"struct.std::_Vector_base<float, std::allocator<float>>::_Vector_impl" = type { %"struct.std::_Vector_base<float, std::allocator<float>>::_Vector_impl_data" }
%"struct.std::_Vector_base<float, std::allocator<float>>::_Vector_impl_data" = type { ptr, ptr, ptr }
%"struct.faiss::IndexIVFInterface" = type { ptr, %"struct.faiss::Level1Quantizer", i64, i64 }
%"struct.faiss::IndexIVF" = type <{ %"struct.faiss::Index.base", [4 x i8], %"struct.faiss::IndexIVFInterface", ptr, i8, [7 x i8], i64, i32, i32, %"struct.faiss::DirectMap", i8, [7 x i8] }>
%"struct.faiss::DirectMap" = type { i32, %"class.std::vector.3", %"class.std::unordered_map" }
%"class.std::unordered_map" = type { %"class.std::_Hashtable" }
%"class.std::_Hashtable" = type { ptr, i64, %"struct.std::__detail::_Hash_node_base", i64, %"struct.std::__detail::_Prime_rehash_policy", ptr }
%"struct.std::__detail::_Hash_node_base" = type { ptr }
%"struct.std::__detail::_Prime_rehash_policy" = type { float, i64 }
%"class.std::vector.35" = type { %"struct.std::_Vector_base.36" }
%"struct.std::_Vector_base.36" = type { %"struct.std::_Vector_base<unsigned long, std::allocator<unsigned long>>::_Vector_impl" }
%"struct.std::_Vector_base<unsigned long, std::allocator<unsigned long>>::_Vector_impl" = type { %"struct.std::_Vector_base<unsigned long, std::allocator<unsigned long>>::_Vector_impl_data" }
%"struct.std::_Vector_base<unsigned long, std::allocator<unsigned long>>::_Vector_impl_data" = type { ptr, ptr, ptr }
%"class.std::vector.40" = type { %"struct.std::_Vector_base.41" }
%"struct.std::_Vector_base.41" = type { %"struct.std::_Vector_base<unsigned char, std::allocator<unsigned char>>::_Vector_impl" }
%"struct.std::_Vector_base<unsigned char, std::allocator<unsigned char>>::_Vector_impl" = type { %"struct.std::_Vector_base<unsigned char, std::allocator<unsigned char>>::_Vector_impl_data" }
%"struct.std::_Vector_base<unsigned char, std::allocator<unsigned char>>::_Vector_impl_data" = type { ptr, ptr, ptr }
%"struct.faiss::Quantizer" = type { ptr, i64, i64 }
%"struct.faiss::IndexFlat1D" = type { %"struct.faiss::IndexFlatL2", i8, %"class.std::vector.3" }
%"struct.faiss::IndexFlatL2" = type { %"struct.faiss::IndexFlat", %"class.std::vector.15" }
%"struct.faiss::IndexFlat" = type { %"struct.faiss::IndexFlatCodes" }
%"struct.faiss::IndexFlatCodes" = type { %"struct.faiss::Index.base", i64, %"class.std::vector.40" }
%"struct.faiss::ResidualQuantizer" = type { %"struct.faiss::AdditiveQuantizer.base", i32, i32, i32, i32, i32, %"struct.faiss::ProgressiveDimClusteringParameters", ptr, %"class.std::vector.15", %"class.std::vector.15" }
%"struct.faiss::AdditiveQuantizer.base" = type <{ %"struct.faiss::Quantizer", i64, %"class.std::vector.35", %"class.std::vector.15", %"class.std::vector.35", i64, i64, i64, i8, i8, i8, [5 x i8], %"struct.faiss::IndexFlat1D", %"class.std::vector.15", i64, i32, float, float }>
%"struct.faiss::ProgressiveDimClusteringParameters" = type <{ %"struct.faiss::ClusteringParameters", i32, i8, [3 x i8] }>
%"struct.faiss::IndexIVFResidualQuantizer" = type { %"struct.faiss::IndexIVFAdditiveQuantizer.base", %"struct.faiss::ResidualQuantizer" }
%"struct.faiss::IndexIVFAdditiveQuantizer.base" = type <{ %"struct.faiss::IndexIVF.base", [7 x i8], ptr, i32 }>
%"struct.faiss::IndexIVF.base" = type <{ %"struct.faiss::Index.base", [4 x i8], %"struct.faiss::IndexIVFInterface", ptr, i8, [7 x i8], i64, i32, i32, %"struct.faiss::DirectMap", i8 }>

@_ZTIN5faiss5IndexE = external constant ptr
@.str.2 = private unnamed_addr constant [106 x i8] c"generated/home/dtcxzyw/WorkSpace/Projects/compilers/llvm-opt-benchmark/bench/faiss/faiss/faiss/IVFlib.cpp\00", align 1
@_ZTIN5faiss14FaissExceptionE = external constant ptr
@_ZTIN5faiss23ResidualCoarseQuantizerE = external constant ptr
@.str.28 = private unnamed_addr constant [55 x i8] c"Error: '%s' failed: the coarse quantizer must be a RCQ\00", align 1
@.str.29 = private unnamed_addr constant [4 x i8] c"rcq\00", align 1
@__PRETTY_FUNCTION__._ZN5faiss6ivflib32ivf_residual_add_from_flat_codesEPNS_25IndexIVFResidualQuantizerEmPKhl = private unnamed_addr constant [116 x i8] c"void faiss::ivflib::ivf_residual_add_from_flat_codes(IndexIVFResidualQuantizer *, size_t, const uint8_t *, int64_t)\00", align 1
@3 = private unnamed_addr constant %struct.ident_t { i32 0, i32 2, i32 0, i32 22, ptr @0 }, align 8

; Function Attrs: mustprogress uwtable
define void @_ZN5faiss6ivflib32ivf_residual_add_from_flat_codesEPNS_25IndexIVFResidualQuantizerEmPKhl(ptr noundef %0, i64 noundef %1, ptr noundef %2, i64 noundef %3) #4 personality ptr @__gxx_personality_v0 {
  %5 = alloca ptr, align 8
  %6 = alloca i64, align 8
  %7 = alloca ptr, align 8
  %8 = alloca i64, align 8
  %9 = alloca ptr, align 8
  %10 = alloca %"class.std::__cxx11::basic_string", align 8
  %11 = alloca i32, align 4
  %12 = alloca ptr, align 8
  %13 = alloca i32, align 4
  %14 = alloca ptr, align 8
  %15 = alloca ptr, align 8
  %16 = alloca i32, align 4
  %17 = alloca i32, align 4
  %18 = call i32 @__kmpc_global_thread_num(ptr @3)
  store ptr %0, ptr %5, align 8
  store i64 %1, ptr %6, align 8
  store ptr %2, ptr %7, align 8
  store i64 %3, ptr %8, align 8
  %19 = load ptr, ptr %5, align 8
  %20 = getelementptr inbounds i8, ptr %19, i64 48
  %21 = getelementptr inbounds %"struct.faiss::Level1Quantizer", ptr %20, i32 0, i32 0
  %22 = load ptr, ptr %21, align 8
  %23 = icmp eq ptr %22, null
  br i1 %23, label %26, label %24

24:                                               ; preds = %4
  %25 = call ptr @__dynamic_cast(ptr %22, ptr @_ZTIN5faiss5IndexE, ptr @_ZTIN5faiss23ResidualCoarseQuantizerE, i64 0) #3
  br label %27

26:                                               ; preds = %4
  br label %27

27:                                               ; preds = %26, %24
  %28 = phi ptr [ %25, %24 ], [ null, %26 ]
  store ptr %28, ptr %9, align 8
  br label %29

29:                                               ; preds = %27
  %30 = load ptr, ptr %9, align 8
  %31 = icmp ne ptr %30, null
  br i1 %31, label %55, label %32

32:                                               ; preds = %29
  br label %33

33:                                               ; preds = %32
  call void @_ZNSt7__cxx1112basic_stringIcSt11char_traitsIcESaIcEEC1Ev(ptr noundef nonnull align 8 dereferenceable(32) %10) #3
  %34 = call i32 (ptr, i64, ptr, ...) @snprintf(ptr noundef null, i64 noundef 0, ptr noundef @.str.28, ptr noundef @.str.29) #3
  store i32 %34, ptr %11, align 4
  %35 = load i32, ptr %11, align 4
  %36 = add nsw i32 %35, 1
  %37 = sext i32 %36 to i64
  invoke void @_ZNSt7__cxx1112basic_stringIcSt11char_traitsIcESaIcEE6resizeEm(ptr noundef nonnull align 8 dereferenceable(32) %10, i64 noundef %37)
          to label %38 unwind label %45

38:                                               ; preds = %33
  %39 = invoke noundef nonnull align 1 dereferenceable(1) ptr @_ZNSt7__cxx1112basic_stringIcSt11char_traitsIcESaIcEEixEm(ptr noundef nonnull align 8 dereferenceable(32) %10, i64 noundef 0)
          to label %40 unwind label %45

40:                                               ; preds = %38
  %41 = call noundef i64 @_ZNKSt7__cxx1112basic_stringIcSt11char_traitsIcESaIcEE4sizeEv(ptr noundef nonnull align 8 dereferenceable(32) %10) #3
  %42 = call i32 (ptr, i64, ptr, ...) @snprintf(ptr noundef %39, i64 noundef %41, ptr noundef @.str.28, ptr noundef @.str.29) #3
  %43 = call ptr @__cxa_allocate_exception(i64 40) #3
  invoke void @_ZN5faiss14FaissExceptionC1ERKNSt7__cxx1112basic_stringIcSt11char_traitsIcESaIcEEEPKcSA_i(ptr noundef nonnull align 8 dereferenceable(40) %43, ptr noundef nonnull align 8 dereferenceable(32) %10, ptr noundef @__PRETTY_FUNCTION__._ZN5faiss6ivflib32ivf_residual_add_from_flat_codesEPNS_25IndexIVFResidualQuantizerEmPKhl, ptr noundef @.str.2, i32 noundef 475)
          to label %44 unwind label %49

44:                                               ; preds = %40
  invoke void @__cxa_throw(ptr %43, ptr @_ZTIN5faiss14FaissExceptionE, ptr @_ZN5faiss14FaissExceptionD2Ev) #16
          to label %86 unwind label %45

45:                                               ; preds = %44, %38, %33
  %46 = landingpad { ptr, i32 }
          cleanup
  %47 = extractvalue { ptr, i32 } %46, 0
  store ptr %47, ptr %12, align 8
  %48 = extractvalue { ptr, i32 } %46, 1
  store i32 %48, ptr %13, align 4
  br label %53

49:                                               ; preds = %40
  %50 = landingpad { ptr, i32 }
          cleanup
  %51 = extractvalue { ptr, i32 } %50, 0
  store ptr %51, ptr %12, align 8
  %52 = extractvalue { ptr, i32 } %50, 1
  store i32 %52, ptr %13, align 4
  call void @__cxa_free_exception(ptr %43) #3
  br label %53

53:                                               ; preds = %49, %45
  call void @_ZNSt7__cxx1112basic_stringIcSt11char_traitsIcESaIcEED1Ev(ptr noundef nonnull align 8 dereferenceable(32) %10) #3
  br label %81

54:                                               ; No predecessors!
  br label %55

55:                                               ; preds = %54, %29
  br label %56

56:                                               ; preds = %55
  %57 = load i64, ptr %8, align 8
  %58 = icmp slt i64 %57, 0
  br i1 %58, label %59, label %63

59:                                               ; preds = %56
  %60 = load ptr, ptr %5, align 8
  %61 = getelementptr inbounds %"struct.faiss::IndexIVF", ptr %60, i32 0, i32 6
  %62 = load i64, ptr %61, align 8
  store i64 %62, ptr %8, align 8
  br label %63

63:                                               ; preds = %59, %56
  %64 = load ptr, ptr %5, align 8
  %65 = getelementptr inbounds %"struct.faiss::IndexIVF", ptr %64, i32 0, i32 3
  %66 = load ptr, ptr %65, align 8
  store ptr %66, ptr %14, align 8
  %67 = load ptr, ptr %5, align 8
  %68 = getelementptr inbounds %"struct.faiss::IndexIVFResidualQuantizer", ptr %67, i32 0, i32 1
  store ptr %68, ptr %15, align 8
  %69 = load ptr, ptr %15, align 8
  %70 = load ptr, ptr %14, align 8
  %71 = load i64, ptr %6, align 8
  %72 = icmp ugt i64 %71, 10000
  br i1 %72, label %73, label %74

73:                                               ; preds = %63
  call void (ptr, i32, ptr, ...) @__kmpc_fork_call(ptr @3, i32 7, ptr @_ZN5faiss6ivflib32ivf_residual_add_from_flat_codesEPNS_25IndexIVFResidualQuantizerEmPKhl.omp_outlined, ptr %5, ptr %69, ptr %6, ptr %7, ptr %8, ptr %9, ptr %70)
  br label %75

74:                                               ; preds = %63
  call void @__kmpc_serialized_parallel(ptr @3, i32 %18)
  store i32 %18, ptr %16, align 4
  store i32 0, ptr %17, align 4
  call void @_ZN5faiss6ivflib32ivf_residual_add_from_flat_codesEPNS_25IndexIVFResidualQuantizerEmPKhl.omp_outlined(ptr %16, ptr %17, ptr %5, ptr %69, ptr %6, ptr %7, ptr %8, ptr %9, ptr %70) #3
  call void @__kmpc_end_serialized_parallel(ptr @3, i32 %18)
  br label %75

75:                                               ; preds = %74, %73
  %76 = load i64, ptr %6, align 8
  %77 = load ptr, ptr %5, align 8
  %78 = getelementptr inbounds %"struct.faiss::Index", ptr %77, i32 0, i32 3
  %79 = load i64, ptr %78, align 8
  %80 = add i64 %79, %76
  store i64 %80, ptr %78, align 8
  ret void

81:                                               ; preds = %53
  %82 = load ptr, ptr %12, align 8
  %83 = load i32, ptr %13, align 4
  %84 = insertvalue { ptr, i32 } poison, ptr %82, 0
  %85 = insertvalue { ptr, i32 } %84, i32 %83, 1
  resume { ptr, i32 } %85

86:                                               ; preds = %44
  unreachable
}