; Function Attrs: mustprogress uwtable
define void @_ZN5faiss6ivflib32ivf_residual_add_from_flat_codesEPNS_25IndexIVFResidualQuantizerEmPKhl(ptr noundef %0, i64 noundef %1, ptr noundef %2, i64 noundef %3) local_unnamed_addr #3 personality ptr @__gxx_personality_v0 {
  %5 = alloca ptr, align 8
  %6 = alloca i64, align 8
  %7 = alloca ptr, align 8
  %8 = alloca i64, align 8
  %9 = alloca ptr, align 8
  %10 = alloca %"class.std::__cxx11::basic_string", align 8
  %11 = alloca i32, align 4
  %12 = tail call i32 @__kmpc_global_thread_num(ptr nonnull @3)
  store ptr %0, ptr %5, align 8
  store i64 %1, ptr %6, align 8
  store ptr %2, ptr %7, align 8
  store i64 %3, ptr %8, align 8
  %13 = getelementptr inbounds i8, ptr %0, i64 48
  %14 = load ptr, ptr %13, align 8
  %15 = icmp eq ptr %14, null
  br i1 %15, label %.thread, label %16

16:                                               ; preds = %4
  %17 = tail call ptr @__dynamic_cast(ptr nonnull %14, ptr nonnull @_ZTIN5faiss5IndexE, ptr nonnull @_ZTIN5faiss23ResidualCoarseQuantizerE, i64 0) #16
  store ptr %17, ptr %9, align 8
  %.not = icmp eq ptr %17, null
  br i1 %.not, label %.thread, label %33

.thread:                                          ; preds = %4, %16
  call void @_ZNSt7__cxx1112basic_stringIcSt11char_traitsIcESaIcEEC1Ev(ptr noundef nonnull align 8 dereferenceable(32) %10) #16
  %18 = call i32 (ptr, i64, ptr, ...) @snprintf(ptr noundef null, i64 noundef 0, ptr noundef nonnull @.str.28, ptr noundef nonnull @.str.29) #16
  %19 = add nsw i32 %18, 1
  %20 = sext i32 %19 to i64
  invoke void @_ZNSt7__cxx1112basic_stringIcSt11char_traitsIcESaIcEE6resizeEm(ptr noundef nonnull align 8 dereferenceable(32) %10, i64 noundef %20)
          to label %21 unwind label %28

21:                                               ; preds = %.thread
  %22 = invoke noundef nonnull align 1 dereferenceable(1) ptr @_ZNSt7__cxx1112basic_stringIcSt11char_traitsIcESaIcEEixEm(ptr noundef nonnull align 8 dereferenceable(32) %10, i64 noundef 0)
          to label %23 unwind label %28

23:                                               ; preds = %21
  %24 = call noundef i64 @_ZNKSt7__cxx1112basic_stringIcSt11char_traitsIcESaIcEE4sizeEv(ptr noundef nonnull align 8 dereferenceable(32) %10) #16
  %25 = call i32 (ptr, i64, ptr, ...) @snprintf(ptr noundef nonnull %22, i64 noundef %24, ptr noundef nonnull @.str.28, ptr noundef nonnull @.str.29) #16
  %26 = call ptr @__cxa_allocate_exception(i64 40) #16
  invoke void @_ZN5faiss14FaissExceptionC1ERKNSt7__cxx1112basic_stringIcSt11char_traitsIcESaIcEEEPKcSA_i(ptr noundef nonnull align 8 dereferenceable(40) %26, ptr noundef nonnull align 8 dereferenceable(32) %10, ptr noundef nonnull @__PRETTY_FUNCTION__._ZN5faiss6ivflib32ivf_residual_add_from_flat_codesEPNS_25IndexIVFResidualQuantizerEmPKhl, ptr noundef nonnull @.str.2, i32 noundef 475)
          to label %27 unwind label %30

27:                                               ; preds = %23
  invoke void @__cxa_throw(ptr nonnull %26, ptr nonnull @_ZTIN5faiss14FaissExceptionE, ptr nonnull @_ZN5faiss14FaissExceptionD2Ev) #22
          to label %51 unwind label %28

28:                                               ; preds = %27, %21, %.thread
  %29 = landingpad { ptr, i32 }
          cleanup
  br label %32

30:                                               ; preds = %23
  %31 = landingpad { ptr, i32 }
          cleanup
  call void @__cxa_free_exception(ptr %26) #16
  br label %32

32:                                               ; preds = %30, %28
  %.pn = phi { ptr, i32 } [ %29, %28 ], [ %31, %30 ]
  call void @_ZNSt7__cxx1112basic_stringIcSt11char_traitsIcESaIcEED1Ev(ptr noundef nonnull align 8 dereferenceable(32) %10) #16
  resume { ptr, i32 } %.pn

33:                                               ; preds = %16
  %34 = icmp slt i64 %3, 0
  br i1 %34, label %35, label %38

35:                                               ; preds = %33
  %36 = getelementptr inbounds i8, ptr %0, i64 152
  %37 = load i64, ptr %36, align 8
  store i64 %37, ptr %8, align 8
  br label %38

38:                                               ; preds = %35, %33
  %39 = getelementptr inbounds i8, ptr %0, i64 136
  %40 = load ptr, ptr %39, align 8
  %41 = getelementptr inbounds i8, ptr %0, i64 280
  %42 = icmp ugt i64 %1, 10000
  br i1 %42, label %43, label %44

43:                                               ; preds = %38
  call void (ptr, i32, ptr, ...) @__kmpc_fork_call(ptr nonnull @3, i32 7, ptr nonnull @_ZN5faiss6ivflib32ivf_residual_add_from_flat_codesEPNS_25IndexIVFResidualQuantizerEmPKhl.omp_outlined, ptr nonnull %5, ptr nonnull %41, ptr nonnull %6, ptr nonnull %7, ptr nonnull %8, ptr nonnull %9, ptr %40)
  %.pre = load i64, ptr %6, align 8
  %.pre8 = load ptr, ptr %5, align 8
  br label %45

44:                                               ; preds = %38
  tail call void @__kmpc_serialized_parallel(ptr nonnull @3, i32 %12)
  store i32 %12, ptr %11, align 4
  call void @_ZN5faiss6ivflib32ivf_residual_add_from_flat_codesEPNS_25IndexIVFResidualQuantizerEmPKhl.omp_outlined(ptr nonnull %11, ptr nonnull poison, ptr %5, ptr %41, ptr %6, ptr %7, ptr %8, ptr %9, ptr %40) #16
  tail call void @__kmpc_end_serialized_parallel(ptr nonnull @3, i32 %12)
  br label %45

45:                                               ; preds = %44, %43
  %46 = phi ptr [ %0, %44 ], [ %.pre8, %43 ]
  %47 = phi i64 [ %1, %44 ], [ %.pre, %43 ]
  %48 = getelementptr inbounds i8, ptr %46, i64 16
  %49 = load i64, ptr %48, align 8
  %50 = add i64 %49, %47
  store i64 %50, ptr %48, align 8
  ret void

51:                                               ; preds = %27
  unreachable
}